target datalayout = "e-m:e-p270:32:32-p271:32:32-p272:64:64-i64:64-i128:128-f80:128-n8:16:32:64-S128"
target triple = "x86_64-pc-linux-gnu"

%struct.ct_test_fixture = type { ptr, i64, ptr, ptr, ptr, ptr, i32, i32, ptr, i64, ptr, ptr, ptr, i32 }

@ct_dir = internal global ptr null, align 8
@.str.11 = private unnamed_addr constant [20 x i8] c"test_encode_tls_sct\00", align 1
@.str.16 = private unnamed_addr constant [26 x i8] c"../openssl/test/ct_test.c\00", align 1
@.str.51 = private unnamed_addr constant [9 x i8] c"tls1.sct\00", align 1
@__const.test_encode_tls_sct.log_id = private unnamed_addr constant [45 x i8] c"3xwuwRUAlFJHqWFoMl3cXHlZ6PfG04j8AC4LvT9012Q=\00", align 16
@__const.test_encode_tls_sct.signature = private unnamed_addr constant [101 x i8] c"BAMARzBAMiBIL2dRrzXbplQ2vh/WZA89v5pBQpSVkkUwKI+j5eI+BgIhAOTtwNs6xXKx4vXoq2poBlOYfc9BAn3+/6EFUZ2J7b8I\00", align 16
@.str.52 = private unnamed_addr constant [108 x i8] c"sct = SCT_new_from_base64(SCT_VERSION_V1, log_id, CT_LOG_ENTRY_TYPE_X509, timestamp, extensions, signature)\00", align 1

; Function Attrs: inlinehint nounwind uwtable
define internal ptr @ossl_check_SCT_type(ptr noundef %0) #4 {
  %2 = alloca ptr, align 8
  store ptr %0, ptr %2, align 8, !tbaa !29
  %3 = load ptr, ptr %2, align 8, !tbaa !29
  ret ptr %3
}

; Function Attrs: inlinehint nounwind uwtable
define internal ptr @ossl_check_SCT_sk_type(ptr noundef %0) #4 {
  %2 = alloca ptr, align 8
  store ptr %0, ptr %2, align 8, !tbaa !40
  %3 = load ptr, ptr %2, align 8, !tbaa !40
  ret ptr %3
}

; Function Attrs: nounwind uwtable
define internal void @tear_down(ptr noundef %0) #0 {
  %2 = alloca ptr, align 8
  store ptr %0, ptr %2, align 8, !tbaa !9
  %3 = load ptr, ptr %2, align 8, !tbaa !9
  %4 = icmp ne ptr %3, null
  br i1 %4, label %5, label %12

5:                                                ; preds = %1
  %6 = load ptr, ptr %2, align 8, !tbaa !9
  %7 = getelementptr inbounds nuw %struct.ct_test_fixture, ptr %6, i32 0, i32 2
  %8 = load ptr, ptr %7, align 8, !tbaa !37
  call void @CTLOG_STORE_free(ptr noundef %8)
  %9 = load ptr, ptr %2, align 8, !tbaa !9
  %10 = getelementptr inbounds nuw %struct.ct_test_fixture, ptr %9, i32 0, i32 10
  %11 = load ptr, ptr %10, align 8, !tbaa !31
  call void @SCT_LIST_free(ptr noundef %11)
  br label %12

12:                                               ; preds = %5, %1
  %13 = load ptr, ptr %2, align 8, !tbaa !9
  call void @CRYPTO_free(ptr noundef %13, ptr noundef @.str.16, i32 noundef 88)
  ret void
}

; Function Attrs: nounwind uwtable
define internal i32 @test_encode_tls_sct() #0 {
  %1 = alloca i32, align 4
  %2 = alloca [45 x i8], align 16
  %3 = alloca i64, align 8
  %4 = alloca [1 x i8], align 1
  %5 = alloca [101 x i8], align 16
  %6 = alloca ptr, align 8
  %7 = alloca ptr, align 8
  %8 = alloca i32, align 4
  %9 = alloca i32, align 4
  call void @llvm.lifetime.start.p0(i64 45, ptr %2) #9
  call void @llvm.memcpy.p0.p0.i64(ptr align 16 %2, ptr align 16 @__const.test_encode_tls_sct.log_id, i64 45, i1 false)
  call void @llvm.lifetime.start.p0(i64 8, ptr %3) #9
  store i64 1, ptr %3, align 8, !tbaa !28
  call void @llvm.lifetime.start.p0(i64 1, ptr %4) #9
  call void @llvm.memset.p0.i64(ptr align 1 %4, i8 0, i64 1, i1 false)
  call void @llvm.lifetime.start.p0(i64 101, ptr %5) #9
  call void @llvm.memcpy.p0.p0.i64(ptr align 16 %5, ptr align 16 @__const.test_encode_tls_sct.signature, i64 101, i1 false)
  call void @llvm.lifetime.start.p0(i64 8, ptr %6) #9
  store ptr null, ptr %6, align 8, !tbaa !29
  call void @llvm.lifetime.start.p0(i64 8, ptr %7) #9
  %10 = call ptr @set_up(ptr noundef @.str.11)
  store ptr %10, ptr %7, align 8, !tbaa !9
  call void @llvm.lifetime.start.p0(i64 4, ptr %8) #9
  store i32 0, ptr %8, align 4, !tbaa !11
  %11 = load ptr, ptr %7, align 8, !tbaa !9
  %12 = icmp eq ptr %11, null
  br i1 %12, label %13, label %14

13:                                               ; preds = %0
  store i32 0, ptr %1, align 4
  store i32 1, ptr %9, align 4
  br label %58

14:                                               ; preds = %0
  %15 = call ptr @OPENSSL_sk_new_null()
  %16 = load ptr, ptr %7, align 8, !tbaa !9
  %17 = getelementptr inbounds nuw %struct.ct_test_fixture, ptr %16, i32 0, i32 10
  store ptr %15, ptr %17, align 8, !tbaa !31
  %18 = load ptr, ptr %7, align 8, !tbaa !9
  %19 = getelementptr inbounds nuw %struct.ct_test_fixture, ptr %18, i32 0, i32 10
  %20 = load ptr, ptr %19, align 8, !tbaa !31
  %21 = icmp eq ptr %20, null
  br i1 %21, label %22, label %24

22:                                               ; preds = %14
  %23 = load ptr, ptr %7, align 8, !tbaa !9
  call void @tear_down(ptr noundef %23)
  store i32 0, ptr %1, align 4
  store i32 1, ptr %9, align 4
  br label %58

24:                                               ; preds = %14
  %25 = getelementptr inbounds [45 x i8], ptr %2, i64 0, i64 0
  %26 = getelementptr inbounds [1 x i8], ptr %4, i64 0, i64 0
  %27 = getelementptr inbounds [101 x i8], ptr %5, i64 0, i64 0
  %28 = call ptr @SCT_new_from_base64(i8 noundef zeroext 0, ptr noundef %25, i32 noundef 0, i64 noundef 1, ptr noundef %26, ptr noundef %27)
  store ptr %28, ptr %6, align 8, !tbaa !29
  %29 = call i32 @test_ptr(ptr noundef @.str.16, i32 noundef 460, ptr noundef @.str.52, ptr noundef %28)
  %30 = icmp ne i32 %29, 0
  br i1 %30, label %33, label %31

31:                                               ; preds = %24
  %32 = load ptr, ptr %7, align 8, !tbaa !9
  call void @tear_down(ptr noundef %32)
  store i32 0, ptr %1, align 4
  store i32 1, ptr %9, align 4
  br label %58

33:                                               ; preds = %24
  %34 = load ptr, ptr %7, align 8, !tbaa !9
  %35 = getelementptr inbounds nuw %struct.ct_test_fixture, ptr %34, i32 0, i32 10
  %36 = load ptr, ptr %35, align 8, !tbaa !31
  %37 = call ptr @ossl_check_SCT_sk_type(ptr noundef %36)
  %38 = load ptr, ptr %6, align 8, !tbaa !29
  %39 = call ptr @ossl_check_SCT_type(ptr noundef %38)
  %40 = call i32 @OPENSSL_sk_push(ptr noundef %37, ptr noundef %39)
  %41 = icmp ne i32 %40, 0
  br i1 %41, label %44, label %42

42:                                               ; preds = %33
  %43 = load ptr, ptr %7, align 8, !tbaa !9
  call void @tear_down(ptr noundef %43)
  store i32 0, ptr %1, align 4
  store i32 1, ptr %9, align 4
  br label %58

44:                                               ; preds = %33
  %45 = load ptr, ptr @ct_dir, align 8, !tbaa !4
  %46 = load ptr, ptr %7, align 8, !tbaa !9
  %47 = getelementptr inbounds nuw %struct.ct_test_fixture, ptr %46, i32 0, i32 11
  store ptr %45, ptr %47, align 8, !tbaa !21
  %48 = load ptr, ptr %7, align 8, !tbaa !9
  %49 = getelementptr inbounds nuw %struct.ct_test_fixture, ptr %48, i32 0, i32 12
  store ptr @.str.51, ptr %49, align 8, !tbaa !22
  %50 = load ptr, ptr %7, align 8, !tbaa !9
  %51 = icmp ne ptr %50, null
  br i1 %51, label %52, label %56

52:                                               ; preds = %44
  %53 = load ptr, ptr %7, align 8, !tbaa !9
  %54 = call i32 @execute_cert_test(ptr noundef %53)
  store i32 %54, ptr %8, align 4, !tbaa !11
  %55 = load ptr, ptr %7, align 8, !tbaa !9
  call void @tear_down(ptr noundef %55)
  br label %56

56:                                               ; preds = %52, %44
  %57 = load i32, ptr %8, align 4, !tbaa !11
  store i32 %57, ptr %1, align 4
  store i32 1, ptr %9, align 4
  br label %58

58:                                               ; preds = %56, %42, %31, %22, %13
  call void @llvm.lifetime.end.p0(i64 4, ptr %8) #9
  call void @llvm.lifetime.end.p0(i64 8, ptr %7) #9
  call void @llvm.lifetime.end.p0(i64 8, ptr %6) #9
  call void @llvm.lifetime.end.p0(i64 101, ptr %5) #9
  call void @llvm.lifetime.end.p0(i64 1, ptr %4) #9
  call void @llvm.lifetime.end.p0(i64 8, ptr %3) #9
  call void @llvm.lifetime.end.p0(i64 45, ptr %2) #9
  %59 = load i32, ptr %1, align 4
  ret i32 %59
}