; Function Attrs: nounwind uwtable
define internal range(i32 0, 2) i32 @test_encode_tls_sct() #0 {
  %1 = alloca [45 x i8], align 16
  %2 = alloca [1 x i8], align 1
  %3 = alloca [101 x i8], align 16
  call void @llvm.lifetime.start.p0(i64 45, ptr nonnull %1) #8
  call void @llvm.memcpy.p0.p0.i64(ptr noundef nonnull align 16 dereferenceable(45) %1, ptr noundef nonnull align 16 dereferenceable(45) @__const.test_encode_tls_sct.log_id, i64 45, i1 false)
  call void @llvm.lifetime.start.p0(i64 1, ptr nonnull %2) #8
  store i8 0, ptr %2, align 1
  call void @llvm.lifetime.start.p0(i64 101, ptr nonnull %3) #8
  call void @llvm.memcpy.p0.p0.i64(ptr noundef nonnull align 16 dereferenceable(101) %3, ptr noundef nonnull align 16 dereferenceable(101) @__const.test_encode_tls_sct.signature, i64 101, i1 false)
  %4 = tail call fastcc ptr @set_up(ptr noundef nonnull @.str.11)
  %5 = icmp eq ptr %4, null
  br i1 %5, label %36, label %6

6:                                                ; preds = %0
  %7 = tail call ptr @OPENSSL_sk_new_null() #8
  %8 = getelementptr inbounds nuw i8, ptr %4, i64 72
  store ptr %7, ptr %8, align 8, !tbaa !19
  %9 = icmp eq ptr %7, null
  br i1 %9, label %10, label %14

10:                                               ; preds = %6
  %11 = getelementptr inbounds nuw i8, ptr %4, i64 16
  %12 = load ptr, ptr %11, align 8, !tbaa !18
  tail call void @CTLOG_STORE_free(ptr noundef %12) #8
  %13 = load ptr, ptr %8, align 8, !tbaa !19
  tail call void @SCT_LIST_free(ptr noundef %13) #8
  tail call void @CRYPTO_free(ptr noundef nonnull %4, ptr noundef nonnull @.str.16, i32 noundef 88) #8
  br label %36

14:                                               ; preds = %6
  %15 = call ptr @SCT_new_from_base64(i8 noundef zeroext 0, ptr noundef nonnull %1, i32 noundef 0, i64 noundef 1, ptr noundef nonnull %2, ptr noundef nonnull %3) #8
  %16 = call i32 @test_ptr(ptr noundef nonnull @.str.16, i32 noundef 460, ptr noundef nonnull @.str.52, ptr noundef %15) #8
  %.not = icmp eq i32 %16, 0
  br i1 %.not, label %17, label %21

17:                                               ; preds = %14
  %18 = getelementptr inbounds nuw i8, ptr %4, i64 16
  %19 = load ptr, ptr %18, align 8, !tbaa !18
  call void @CTLOG_STORE_free(ptr noundef %19) #8
  %20 = load ptr, ptr %8, align 8, !tbaa !19
  call void @SCT_LIST_free(ptr noundef %20) #8
  call void @CRYPTO_free(ptr noundef nonnull %4, ptr noundef nonnull @.str.16, i32 noundef 88) #8
  br label %36

21:                                               ; preds = %14
  %22 = load ptr, ptr %8, align 8, !tbaa !19
  %23 = call i32 @OPENSSL_sk_push(ptr noundef %22, ptr noundef %15) #8
  %.not16 = icmp eq i32 %23, 0
  br i1 %.not16, label %24, label %28

24:                                               ; preds = %21
  %25 = getelementptr inbounds nuw i8, ptr %4, i64 16
  %26 = load ptr, ptr %25, align 8, !tbaa !18
  call void @CTLOG_STORE_free(ptr noundef %26) #8
  %27 = load ptr, ptr %8, align 8, !tbaa !19
  call void @SCT_LIST_free(ptr noundef %27) #8
  call void @CRYPTO_free(ptr noundef nonnull %4, ptr noundef nonnull @.str.16, i32 noundef 88) #8
  br label %36

28:                                               ; preds = %21
  %29 = load ptr, ptr @ct_dir, align 8, !tbaa !4
  %30 = getelementptr inbounds nuw i8, ptr %4, i64 80
  store ptr %29, ptr %30, align 8, !tbaa !20
  %31 = getelementptr inbounds nuw i8, ptr %4, i64 88
  store ptr @.str.51, ptr %31, align 8, !tbaa !21
  %32 = call fastcc i32 @execute_cert_test(ptr noundef %4)
  %33 = getelementptr inbounds nuw i8, ptr %4, i64 16
  %34 = load ptr, ptr %33, align 8, !tbaa !18
  call void @CTLOG_STORE_free(ptr noundef %34) #8
  %35 = load ptr, ptr %8, align 8, !tbaa !19
  call void @SCT_LIST_free(ptr noundef %35) #8
  call void @CRYPTO_free(ptr noundef nonnull %4, ptr noundef nonnull @.str.16, i32 noundef 88) #8
  br label %36

36:                                               ; preds = %0, %28, %24, %17, %10
  %.014 = phi i32 [ 0, %10 ], [ %32, %28 ], [ 0, %24 ], [ 0, %17 ], [ 0, %0 ]
  call void @llvm.lifetime.end.p0(i64 101, ptr nonnull %3) #8
  call void @llvm.lifetime.end.p0(i64 1, ptr nonnull %2) #8
  call void @llvm.lifetime.end.p0(i64 45, ptr nonnull %1) #8
  ret i32 %.014
}